; Function Attrs: nounwind uwtable
define void @lv_display_set_resolution(ptr noundef %0, i32 noundef %1, i32 noundef %2) local_unnamed_addr #0 {
  %4 = icmp eq ptr %0, null
  br i1 %4, label %5, label %.thread

5:                                                ; preds = %3
  %6 = load ptr, ptr getelementptr inbounds nuw (i8, ptr @lv_global, i64 40), align 8, !tbaa !33
  %7 = icmp eq ptr %6, null
  br i1 %7, label %16, label %.thread

.thread:                                          ; preds = %3, %5
  %.012 = phi ptr [ %6, %5 ], [ %0, %3 ]
  %8 = load i32, ptr %.012, align 8, !tbaa !3
  %9 = icmp eq i32 %8, %1
  br i1 %9, label %10, label %14

10:                                               ; preds = %.thread
  %11 = getelementptr inbounds nuw i8, ptr %.012, i64 4
  %12 = load i32, ptr %11, align 4, !tbaa !16
  %13 = icmp eq i32 %12, %2
  br i1 %13, label %16, label %14

14:                                               ; preds = %10, %.thread
  store i32 %1, ptr %.012, align 8, !tbaa !3
  %15 = getelementptr inbounds nuw i8, ptr %.012, i64 4
  store i32 %2, ptr %15, align 4, !tbaa !16
  tail call fastcc void @update_resolution(ptr noundef %.012)
  br label %16

16:                                               ; preds = %10, %5, %14
  ret void
}